(lp0
(S'mace'
p1
I2913
tp2
a(S'mace'
p3
I2357
tp4
a(S'mace'
p5
I2229
tp6
a(S'mace'
p7
I1004
tp8
a(S'mace'
p9
I1003
tp10
a(S'mace'
p11
I980
tp12
a(S'mace'
p13
I932
tp14
a(S'mace'
p15
I796
tp16
a(S'mace'
p17
I690
tp18
a(S'mace'
p19
I496
tp20
a(S'mace'
p21
I495
tp22
a(S'mace'
p23
I491
tp24
a(S'mace'
p25
I486
tp26
a(S'mace'
p27
I482
tp28
a(S'mace'
p29
I469
tp30
a(S'mace'
p31
I445
tp32
a(S'mace'
p33
I425
tp34
a(S'mace'
p35
I423
tp36
a(S'mace'
p37
I406
tp38
a(S'mace'
p39
I404
tp40
a(S'mace'
p41
I399
tp42
a(S'mace'
p43
I395
tp44
a(S'mace'
p45
I389
tp46
a(S'mace'
p47
I385
tp48
a(S'mace'
p49
I384
tp50
a(S'mace'
p51
I375
tp52
a(S'mace'
p53
I374
tp54
a(S'mace'
p55
I370
tp56
a(S'mace'
p57
I370
tp58
a(S'mace'
p59
I362
tp60
a(S'mace'
p61
I354
tp62
a(S'mace'
p63
I347
tp64
a(S'mace'
p65
I345
tp66
a(S'mace'
p67
I339
tp68
a(S'mace'
p69
I339
tp70
a(S'mace'
p71
I337
tp72
a(S'mace'
p73
I330
tp74
a(S'mace'
p75
I329
tp76
a(S'mace'
p77
I318
tp78
a(S'mace'
p79
I316
tp80
a(S'mace'
p81
I301
tp82
a(S'mace'
p83
I295
tp84
a(S'mace'
p85
I282
tp86
a(S'mace'
p87
I282
tp88
a(S'mace'
p89
I274
tp90
a(S'mace'
p91
I260
tp92
a(S'mace'
p93
I251
tp94
a(S'mace'
p95
I232
tp96
a(S'mace'
p97
I227
tp98
a(S'mace'
p99
I224
tp100
a(S'mace'
p101
I223
tp102
a(S'mace'
p103
I223
tp104
a(S'mace'
p105
I218
tp106
a(S'mace'
p107
I218
tp108
a(S'mace'
p109
I215
tp110
a(S'mace'
p111
I215
tp112
a(S'mace'
p113
I209
tp114
a(S'mace'
p115
I209
tp116
a(S'mace'
p117
I206
tp118
a(S'mace'
p119
I206
tp120
a(S'mace'
p121
I205
tp122
a(S'mace'
p123
I202
tp124
a(S'mace'
p125
I196
tp126
a(S'mace'
p127
I193
tp128
a(S'mace'
p129
I187
tp130
a(S'mace'
p131
I186
tp132
a(S'mace'
p133
I177
tp134
a(S'mace'
p135
I176
tp136
a(S'mace'
p137
I175
tp138
a(S'mace'
p139
I167
tp140
a(S'mace'
p141
I161
tp142
a(S'mace'
p143
I158
tp144
a(S'mace'
p145
I158
tp146
a(S'mace'
p147
I150
tp148
a(S'mace'
p149
I146
tp150
a(S'mace'
p151
I142
tp152
a(S'mace'
p153
I142
tp154
a(S'mace'
p155
I142
tp156
a(S'mace'
p157
I141
tp158
a(S'mace'
p159
I140
tp160
a(S'mace'
p161
I140
tp162
a(S'mace'
p163
I140
tp164
a(S'mace'
p165
I137
tp166
a(S'mace'
p167
I137
tp168
a(S'mace'
p169
I136
tp170
a(S'mace'
p171
I135
tp172
a(S'mace'
p173
I131
tp174
a(S'mace'
p175
I127
tp176
a(S'mace'
p177
I121
tp178
a(S'mace'
p179
I120
tp180
a(S'mace'
p181
I109
tp182
a(S'mace'
p183
I107
tp184
a(S'mace'
p185
I107
tp186
a(S'mace'
p187
I106
tp188
a(S'mace'
p189
I106
tp190
a(S'mace'
p191
I103
tp192
a(S'mace'
p193
I103
tp194
a(S'mace'
p195
I103
tp196
a(S'mace'
p197
I99
tp198
a(S'mace'
p199
I95
tp200
a(S'mace'
p201
I87
tp202
a(S'mace'
p203
I85
tp204
a.